target datalayout = "e-m:e-p270:32:32-p271:32:32-p272:64:64-i64:64-i128:128-f80:128-n8:16:32:64-S128"
target triple = "x86_64-pc-linux-gnu"

%struct.mbedtls_md_context_t = type { ptr, ptr, ptr }

; Function Attrs: nounwind uwtable
define hidden i32 @mbedtls_md_hmac_update(ptr noundef %0, ptr noundef %1, i64 noundef %2) #0 {
  %4 = alloca i32, align 4
  %5 = alloca ptr, align 8
  %6 = alloca ptr, align 8
  %7 = alloca i64, align 8
  store ptr %0, ptr %5, align 8, !tbaa !7
  store ptr %1, ptr %6, align 8, !tbaa !19
  store i64 %2, ptr %7, align 8, !tbaa !21
  %8 = load ptr, ptr %5, align 8, !tbaa !7
  %9 = icmp eq ptr %8, null
  br i1 %9, label %20, label %10

10:                                               ; preds = %3
  %11 = load ptr, ptr %5, align 8, !tbaa !7
  %12 = getelementptr inbounds nuw %struct.mbedtls_md_context_t, ptr %11, i32 0, i32 0
  %13 = load ptr, ptr %12, align 8, !tbaa !10
  %14 = icmp eq ptr %13, null
  br i1 %14, label %20, label %15

15:                                               ; preds = %10
  %16 = load ptr, ptr %5, align 8, !tbaa !7
  %17 = getelementptr inbounds nuw %struct.mbedtls_md_context_t, ptr %16, i32 0, i32 2
  %18 = load ptr, ptr %17, align 8, !tbaa !16
  %19 = icmp eq ptr %18, null
  br i1 %19, label %20, label %21

20:                                               ; preds = %15, %10, %3
  store i32 -20736, ptr %4, align 4
  br label %26

21:                                               ; preds = %15
  %22 = load ptr, ptr %5, align 8, !tbaa !7
  %23 = load ptr, ptr %6, align 8, !tbaa !19
  %24 = load i64, ptr %7, align 8, !tbaa !21
  %25 = call i32 @mbedtls_md_update(ptr noundef %22, ptr noundef %23, i64 noundef %24)
  store i32 %25, ptr %4, align 4
  br label %26

26:                                               ; preds = %21, %20
  %27 = load i32, ptr %4, align 4
  ret i32 %27
}

; Function Attrs: nounwind uwtable
define hidden void @mbedtls_md_init(ptr noundef %0) #0 {
  %2 = alloca ptr, align 8
  store ptr %0, ptr %2, align 8, !tbaa !7
  %3 = load ptr, ptr %2, align 8, !tbaa !7
  call void @llvm.memset.p0.i64(ptr align 8 %3, i8 0, i64 24, i1 false)
  ret void
}

; Function Attrs: nounwind uwtable
define hidden i32 @mbedtls_md_hmac(ptr noundef %0, ptr noundef %1, i64 noundef %2, ptr noundef %3, i64 noundef %4, ptr noundef %5) #0 {
  %7 = alloca i32, align 4
  %8 = alloca ptr, align 8
  %9 = alloca ptr, align 8
  %10 = alloca i64, align 8
  %11 = alloca ptr, align 8
  %12 = alloca i64, align 8
  %13 = alloca ptr, align 8
  %14 = alloca %struct.mbedtls_md_context_t, align 8
  %15 = alloca i32, align 4
  %16 = alloca i32, align 4
  store ptr %0, ptr %8, align 8, !tbaa !18
  store ptr %1, ptr %9, align 8, !tbaa !19
  store i64 %2, ptr %10, align 8, !tbaa !21
  store ptr %3, ptr %11, align 8, !tbaa !19
  store i64 %4, ptr %12, align 8, !tbaa !21
  store ptr %5, ptr %13, align 8, !tbaa !19
  call void @llvm.lifetime.start.p0(i64 24, ptr %14) #9
  call void @llvm.lifetime.start.p0(i64 4, ptr %15) #9
  store i32 -110, ptr %15, align 4, !tbaa !3
  %17 = load ptr, ptr %8, align 8, !tbaa !18
  %18 = icmp eq ptr %17, null
  br i1 %18, label %19, label %20

19:                                               ; preds = %6
  store i32 -20736, ptr %7, align 4
  store i32 1, ptr %16, align 4
  br label %45

20:                                               ; preds = %6
  call void @mbedtls_md_init(ptr noundef %14)
  %21 = load ptr, ptr %8, align 8, !tbaa !18
  %22 = call i32 @mbedtls_md_setup(ptr noundef %14, ptr noundef %21, i32 noundef 1)
  store i32 %22, ptr %15, align 4, !tbaa !3
  %23 = icmp ne i32 %22, 0
  br i1 %23, label %24, label %25

24:                                               ; preds = %20
  br label %43

25:                                               ; preds = %20
  %26 = load ptr, ptr %9, align 8, !tbaa !19
  %27 = load i64, ptr %10, align 8, !tbaa !21
  %28 = call i32 @mbedtls_md_hmac_starts(ptr noundef %14, ptr noundef %26, i64 noundef %27)
  store i32 %28, ptr %15, align 4, !tbaa !3
  %29 = icmp ne i32 %28, 0
  br i1 %29, label %30, label %31

30:                                               ; preds = %25
  br label %43

31:                                               ; preds = %25
  %32 = load ptr, ptr %11, align 8, !tbaa !19
  %33 = load i64, ptr %12, align 8, !tbaa !21
  %34 = call i32 @mbedtls_md_hmac_update(ptr noundef %14, ptr noundef %32, i64 noundef %33)
  store i32 %34, ptr %15, align 4, !tbaa !3
  %35 = icmp ne i32 %34, 0
  br i1 %35, label %36, label %37

36:                                               ; preds = %31
  br label %43

37:                                               ; preds = %31
  %38 = load ptr, ptr %13, align 8, !tbaa !19
  %39 = call i32 @mbedtls_md_hmac_finish(ptr noundef %14, ptr noundef %38)
  store i32 %39, ptr %15, align 4, !tbaa !3
  %40 = icmp ne i32 %39, 0
  br i1 %40, label %41, label %42

41:                                               ; preds = %37
  br label %43

42:                                               ; preds = %37
  br label %43

43:                                               ; preds = %42, %41, %36, %30, %24
  call void @mbedtls_md_free(ptr noundef %14)
  %44 = load i32, ptr %15, align 4, !tbaa !3
  store i32 %44, ptr %7, align 4
  store i32 1, ptr %16, align 4
  br label %45

45:                                               ; preds = %43, %19
  call void @llvm.lifetime.end.p0(i64 4, ptr %15) #9
  call void @llvm.lifetime.end.p0(i64 24, ptr %14) #9
  %46 = load i32, ptr %7, align 4
  ret i32 %46
}