; Function Attrs: nounwind uwtable
define hidden i32 @mbedtls_md_hmac(ptr noundef %0, ptr noundef %1, i64 noundef %2, ptr noundef %3, i64 noundef %4, ptr noundef %5) local_unnamed_addr #3 {
  %7 = alloca %struct.mbedtls_md_context_t, align 8
  call void @llvm.lifetime.start.p0(i64 24, ptr nonnull %7) #14
  %8 = icmp eq ptr %0, null
  br i1 %8, label %22, label %9

9:                                                ; preds = %6
  call void @llvm.memset.p0.i64(ptr noundef nonnull align 8 dereferenceable(24) %7, i8 0, i64 24, i1 false)
  %10 = call i32 @mbedtls_md_setup(ptr noundef nonnull %7, ptr noundef nonnull %0, i32 noundef 1)
  %.not = icmp eq i32 %10, 0
  br i1 %.not, label %11, label %mbedtls_md_hmac_update.exit.thread

11:                                               ; preds = %9
  %12 = call i32 @mbedtls_md_hmac_starts(ptr noundef nonnull %7, ptr noundef %1, i64 noundef %2)
  %.not13 = icmp eq i32 %12, 0
  br i1 %.not13, label %13, label %mbedtls_md_hmac_update.exit.thread

13:                                               ; preds = %11
  %14 = load ptr, ptr %7, align 8, !tbaa !3
  %15 = icmp eq ptr %14, null
  %16 = getelementptr inbounds nuw i8, ptr %7, i64 16
  %17 = load ptr, ptr %16, align 8
  %18 = icmp eq ptr %17, null
  %or.cond = select i1 %15, i1 true, i1 %18
  br i1 %or.cond, label %mbedtls_md_hmac_update.exit.thread, label %mbedtls_md_hmac_update.exit

mbedtls_md_hmac_update.exit:                      ; preds = %13
  %19 = call i32 @mbedtls_md_update(ptr noundef nonnull %7, ptr noundef %3, i64 noundef %4)
  %.not14 = icmp eq i32 %19, 0
  br i1 %.not14, label %20, label %mbedtls_md_hmac_update.exit.thread

20:                                               ; preds = %mbedtls_md_hmac_update.exit
  %21 = call i32 @mbedtls_md_hmac_finish(ptr noundef nonnull %7, ptr noundef %5)
  br label %mbedtls_md_hmac_update.exit.thread

mbedtls_md_hmac_update.exit.thread:               ; preds = %13, %20, %mbedtls_md_hmac_update.exit, %11, %9
  %.0 = phi i32 [ %10, %9 ], [ %12, %11 ], [ %19, %mbedtls_md_hmac_update.exit ], [ %21, %20 ], [ -20736, %13 ]
  call void @mbedtls_md_free(ptr noundef nonnull %7)
  br label %22

22:                                               ; preds = %6, %mbedtls_md_hmac_update.exit.thread
  %.08 = phi i32 [ %.0, %mbedtls_md_hmac_update.exit.thread ], [ -20736, %6 ]
  call void @llvm.lifetime.end.p0(i64 24, ptr nonnull %7) #14
  ret i32 %.08
}